; Function Attrs: mustprogress nofree norecurse nosync nounwind willreturn memory(read, inaccessiblemem: none) uwtable
define hidden noundef nonnull align 8 dereferenceable(64) ptr @_ZNK2lp10int_solver11upper_boundEj(ptr noundef nonnull readonly align 8 captures(none) dereferenceable(32) %0, i32 noundef %1) local_unnamed_addr #9 align 2 {
  %3 = getelementptr inbounds nuw i8, ptr %0, i64 16
  %4 = load ptr, ptr %3, align 8, !tbaa !40
  %5 = getelementptr inbounds nuw i8, ptr %4, i64 8
  %6 = load ptr, ptr %5, align 8, !tbaa !237
  %7 = getelementptr inbounds nuw i8, ptr %6, i64 656
  %8 = load ptr, ptr %7, align 8, !tbaa !244
  %9 = zext i32 %1 to i64
  %10 = getelementptr inbounds nuw %"struct.lp::numeric_pair", ptr %8, i64 %9
  ret ptr %10
}